target datalayout = "e-m:e-p270:32:32-p271:32:32-p272:64:64-i64:64-i128:128-f80:128-n8:16:32:64-S128"
target triple = "x86_64-pc-linux-gnu"

%"class.std::__shared_count" = type { ptr }
%"class.cv::Size_" = type { i32, i32 }
%"class.cv::bioinspired::RetinaImpl" = type <{ %"class.cv::bioinspired::Retina", %"struct.cv::bioinspired::RetinaParameters", %"class.std::valarray", %"struct.cv::Ptr.4", i8, [7 x i8] }>
%"class.cv::bioinspired::Retina" = type { %"class.cv::Algorithm" }
%"class.cv::Algorithm" = type { ptr }
%"struct.cv::bioinspired::RetinaParameters" = type { %"struct.cv::bioinspired::RetinaParameters::OPLandIplParvoParameters", %"struct.cv::bioinspired::RetinaParameters::IplMagnoParameters" }
%"struct.cv::bioinspired::RetinaParameters::OPLandIplParvoParameters" = type { i8, i8, float, float, float, float, float, float, float }
%"struct.cv::bioinspired::RetinaParameters::IplMagnoParameters" = type { i8, float, float, float, float, float, float, float }
%"class.std::valarray" = type { i64, ptr }
%"struct.cv::Ptr.4" = type { %"class.std::shared_ptr.5" }
%"class.std::shared_ptr.5" = type { %"class.std::__shared_ptr.6" }
%"class.std::__shared_ptr.6" = type { ptr, %"class.std::__shared_count" }

; Function Attrs: mustprogress nounwind uwtable
define linkonce_odr hidden void @_ZNSt14__shared_countILN9__gnu_cxx12_Lock_policyE2EEC2Ev(ptr noundef nonnull align 8 dereferenceable(8) %0) unnamed_addr #9 comdat align 2 {
  %2 = alloca ptr, align 8
  store ptr %0, ptr %2, align 8, !tbaa !164
  %3 = load ptr, ptr %2, align 8
  %4 = getelementptr inbounds nuw %"class.std::__shared_count", ptr %3, i32 0, i32 0
  store ptr null, ptr %4, align 8, !tbaa !166
  ret void
}

; Function Attrs: mustprogress nounwind uwtable
define linkonce_odr hidden void @_ZNSt12__shared_ptrIN2cv11bioinspired12RetinaFilterELN9__gnu_cxx12_Lock_policyE2EEC2Ev(ptr noundef nonnull align 8 dereferenceable(16) %0) unnamed_addr #9 comdat align 2 {
  %2 = alloca ptr, align 8
  store ptr %0, ptr %2, align 8, !tbaa !281
  %3 = load ptr, ptr %2, align 8
  %4 = getelementptr inbounds nuw %"class.std::__shared_ptr.6", ptr %3, i32 0, i32 0
  store ptr null, ptr %4, align 8, !tbaa !283
  %5 = getelementptr inbounds nuw %"class.std::__shared_ptr.6", ptr %3, i32 0, i32 1
  call void @_ZNSt14__shared_countILN9__gnu_cxx12_Lock_policyE2EEC2Ev(ptr noundef nonnull align 8 dereferenceable(8) %5) #3
  ret void
}

; Function Attrs: noinline noreturn nounwind uwtable
define linkonce_odr hidden void @__clang_call_terminate(ptr noundef %0) #12 comdat {
  %2 = call ptr @__cxa_begin_catch(ptr %0) #3
  call void @_ZSt9terminatev() #26
  unreachable
}

; Function Attrs: inlinehint mustprogress nounwind uwtable
define linkonce_odr void @_ZSt25__valarray_release_memoryPv(ptr noundef %0) #7 comdat {
  %2 = alloca ptr, align 8
  store ptr %0, ptr %2, align 8, !tbaa !209
  %3 = load ptr, ptr %2, align 8, !tbaa !209
  call void @_ZdlPv(ptr noundef %3) #3
  ret void
}

; Function Attrs: inlinehint mustprogress nounwind uwtable
define linkonce_odr void @_ZSt27__valarray_destroy_elementsIfEvPT_S1_(ptr noundef %0, ptr noundef %1) #7 comdat {
  %3 = alloca ptr, align 8
  %4 = alloca ptr, align 8
  store ptr %0, ptr %3, align 8, !tbaa !22
  store ptr %1, ptr %4, align 8, !tbaa !22
  ret void
}

; Function Attrs: mustprogress nounwind uwtable
define linkonce_odr hidden void @_ZNSt10shared_ptrIN2cv11bioinspired12RetinaFilterEEC2Ev(ptr noundef nonnull align 8 dereferenceable(16) %0) unnamed_addr #9 comdat align 2 {
  %2 = alloca ptr, align 8
  store ptr %0, ptr %2, align 8, !tbaa !279
  %3 = load ptr, ptr %2, align 8
  call void @_ZNSt12__shared_ptrIN2cv11bioinspired12RetinaFilterELN9__gnu_cxx12_Lock_policyE2EEC2Ev(ptr noundef nonnull align 8 dereferenceable(16) %3) #3
  ret void
}

; Function Attrs: mustprogress nounwind uwtable
define linkonce_odr hidden void @_ZN2cv11bioinspired16RetinaParameters18IplMagnoParametersC2Ev(ptr noundef nonnull align 4 dereferenceable(32) %0) unnamed_addr #9 comdat align 2 {
  %2 = alloca ptr, align 8
  store ptr %0, ptr %2, align 8, !tbaa !186
  %3 = load ptr, ptr %2, align 8
  %4 = getelementptr inbounds nuw %"struct.cv::bioinspired::RetinaParameters::IplMagnoParameters", ptr %3, i32 0, i32 0
  store i8 1, ptr %4, align 4, !tbaa !188
  %5 = getelementptr inbounds nuw %"struct.cv::bioinspired::RetinaParameters::IplMagnoParameters", ptr %3, i32 0, i32 1
  store float 0.000000e+00, ptr %5, align 4, !tbaa !189
  %6 = getelementptr inbounds nuw %"struct.cv::bioinspired::RetinaParameters::IplMagnoParameters", ptr %3, i32 0, i32 2
  store float 0.000000e+00, ptr %6, align 4, !tbaa !190
  %7 = getelementptr inbounds nuw %"struct.cv::bioinspired::RetinaParameters::IplMagnoParameters", ptr %3, i32 0, i32 3
  store float 7.000000e+00, ptr %7, align 4, !tbaa !191
  %8 = getelementptr inbounds nuw %"struct.cv::bioinspired::RetinaParameters::IplMagnoParameters", ptr %3, i32 0, i32 4
  store float 2.000000e+00, ptr %8, align 4, !tbaa !192
  %9 = getelementptr inbounds nuw %"struct.cv::bioinspired::RetinaParameters::IplMagnoParameters", ptr %3, i32 0, i32 5
  store float 0x3FEE666660000000, ptr %9, align 4, !tbaa !193
  %10 = getelementptr inbounds nuw %"struct.cv::bioinspired::RetinaParameters::IplMagnoParameters", ptr %3, i32 0, i32 6
  store float 0.000000e+00, ptr %10, align 4, !tbaa !194
  %11 = getelementptr inbounds nuw %"struct.cv::bioinspired::RetinaParameters::IplMagnoParameters", ptr %3, i32 0, i32 7
  store float 7.000000e+00, ptr %11, align 4, !tbaa !195
  ret void
}

; Function Attrs: mustprogress nounwind uwtable
define linkonce_odr hidden void @_ZN2cv11bioinspired16RetinaParameters24OPLandIplParvoParametersC2Ev(ptr noundef nonnull align 4 dereferenceable(32) %0) unnamed_addr #9 comdat align 2 {
  %2 = alloca ptr, align 8
  store ptr %0, ptr %2, align 8, !tbaa !175
  %3 = load ptr, ptr %2, align 8
  %4 = getelementptr inbounds nuw %"struct.cv::bioinspired::RetinaParameters::OPLandIplParvoParameters", ptr %3, i32 0, i32 0
  store i8 1, ptr %4, align 4, !tbaa !177
  %5 = getelementptr inbounds nuw %"struct.cv::bioinspired::RetinaParameters::OPLandIplParvoParameters", ptr %3, i32 0, i32 1
  store i8 1, ptr %5, align 1, !tbaa !178
  %6 = getelementptr inbounds nuw %"struct.cv::bioinspired::RetinaParameters::OPLandIplParvoParameters", ptr %3, i32 0, i32 2
  store float 7.500000e-01, ptr %6, align 4, !tbaa !179
  %7 = getelementptr inbounds nuw %"struct.cv::bioinspired::RetinaParameters::OPLandIplParvoParameters", ptr %3, i32 0, i32 3
  store float 0x3FECCCCCC0000000, ptr %7, align 4, !tbaa !180
  %8 = getelementptr inbounds nuw %"struct.cv::bioinspired::RetinaParameters::OPLandIplParvoParameters", ptr %3, i32 0, i32 4
  store float 0x3FE0F5C280000000, ptr %8, align 4, !tbaa !181
  %9 = getelementptr inbounds nuw %"struct.cv::bioinspired::RetinaParameters::OPLandIplParvoParameters", ptr %3, i32 0, i32 5
  store float 0x3F847AE140000000, ptr %9, align 4, !tbaa !182
  %10 = getelementptr inbounds nuw %"struct.cv::bioinspired::RetinaParameters::OPLandIplParvoParameters", ptr %3, i32 0, i32 6
  store float 5.000000e-01, ptr %10, align 4, !tbaa !183
  %11 = getelementptr inbounds nuw %"struct.cv::bioinspired::RetinaParameters::OPLandIplParvoParameters", ptr %3, i32 0, i32 7
  store float 7.000000e+00, ptr %11, align 4, !tbaa !184
  %12 = getelementptr inbounds nuw %"struct.cv::bioinspired::RetinaParameters::OPLandIplParvoParameters", ptr %3, i32 0, i32 8
  store float 7.500000e-01, ptr %12, align 4, !tbaa !185
  ret void
}

; Function Attrs: inlinehint mustprogress nounwind uwtable
define linkonce_odr hidden void @_ZNSt8valarrayIfED2Ev(ptr noundef nonnull align 8 dereferenceable(16) %0) unnamed_addr #7 comdat align 2 personality ptr @__gxx_personality_v0 {
  %2 = alloca ptr, align 8
  store ptr %0, ptr %2, align 8, !tbaa !33
  %3 = load ptr, ptr %2, align 8
  %4 = getelementptr inbounds nuw %"class.std::valarray", ptr %3, i32 0, i32 1
  %5 = load ptr, ptr %4, align 8, !tbaa !38
  %6 = getelementptr inbounds nuw %"class.std::valarray", ptr %3, i32 0, i32 1
  %7 = load ptr, ptr %6, align 8, !tbaa !38
  %8 = getelementptr inbounds nuw %"class.std::valarray", ptr %3, i32 0, i32 0
  %9 = load i64, ptr %8, align 8, !tbaa !35
  %10 = getelementptr inbounds nuw float, ptr %7, i64 %9
  invoke void @_ZSt27__valarray_destroy_elementsIfEvPT_S1_(ptr noundef %5, ptr noundef %10)
          to label %11 unwind label %15

11:                                               ; preds = %1
  %12 = getelementptr inbounds nuw %"class.std::valarray", ptr %3, i32 0, i32 1
  %13 = load ptr, ptr %12, align 8, !tbaa !38
  invoke void @_ZSt25__valarray_release_memoryPv(ptr noundef %13)
          to label %14 unwind label %15

14:                                               ; preds = %11
  ret void

15:                                               ; preds = %11, %1
  %16 = landingpad { ptr, i32 }
          catch ptr null
  %17 = extractvalue { ptr, i32 } %16, 0
  call void @__clang_call_terminate(ptr %17) #26
  unreachable
}

; Function Attrs: inlinehint mustprogress nounwind uwtable
define linkonce_odr hidden void @_ZN2cv3PtrINS_11bioinspired12RetinaFilterEEC2Ev(ptr noundef nonnull align 8 dereferenceable(16) %0) unnamed_addr #7 comdat align 2 {
  %2 = alloca ptr, align 8
  store ptr %0, ptr %2, align 8, !tbaa !39
  %3 = load ptr, ptr %2, align 8
  call void @_ZNSt10shared_ptrIN2cv11bioinspired12RetinaFilterEEC2Ev(ptr noundef nonnull align 8 dereferenceable(16) %3) #3
  ret void
}

; Function Attrs: inlinehint mustprogress nounwind uwtable
define linkonce_odr hidden void @_ZNSt8valarrayIfEC2Ev(ptr noundef nonnull align 8 dereferenceable(16) %0) unnamed_addr #7 comdat align 2 {
  %2 = alloca ptr, align 8
  store ptr %0, ptr %2, align 8, !tbaa !33
  %3 = load ptr, ptr %2, align 8
  %4 = getelementptr inbounds nuw %"class.std::valarray", ptr %3, i32 0, i32 0
  store i64 0, ptr %4, align 8, !tbaa !35
  %5 = getelementptr inbounds nuw %"class.std::valarray", ptr %3, i32 0, i32 1
  store ptr null, ptr %5, align 8, !tbaa !38
  ret void
}

; Function Attrs: inlinehint mustprogress uwtable
define linkonce_odr hidden void @_ZN2cv11bioinspired16RetinaParametersC2Ev(ptr noundef nonnull align 4 dereferenceable(64) %0) unnamed_addr #6 comdat align 2 {
  %2 = alloca ptr, align 8
  store ptr %0, ptr %2, align 8, !tbaa !31
  %3 = load ptr, ptr %2, align 8
  %4 = getelementptr inbounds nuw %"struct.cv::bioinspired::RetinaParameters", ptr %3, i32 0, i32 0
  call void @_ZN2cv11bioinspired16RetinaParameters24OPLandIplParvoParametersC2Ev(ptr noundef nonnull align 4 dereferenceable(32) %4)
  %5 = getelementptr inbounds nuw %"struct.cv::bioinspired::RetinaParameters", ptr %3, i32 0, i32 1
  call void @_ZN2cv11bioinspired16RetinaParameters18IplMagnoParametersC2Ev(ptr noundef nonnull align 4 dereferenceable(32) %5)
  ret void
}

; Function Attrs: inlinehint mustprogress uwtable
define linkonce_odr hidden void @_ZN2cv11bioinspired6RetinaC2Ev(ptr noundef nonnull align 8 dereferenceable(8) %0) unnamed_addr #6 comdat align 2 {
  %2 = alloca ptr, align 8
  store ptr %0, ptr %2, align 8, !tbaa !29
  %3 = load ptr, ptr %2, align 8
  call void @_ZN2cv9AlgorithmC2Ev(ptr noundef nonnull align 8 dereferenceable(8) %3)
  store ptr getelementptr inbounds inrange(-16, 240) ({ [32 x ptr] }, ptr @_ZTVN2cv11bioinspired6RetinaE, i32 0, i32 0, i32 2), ptr %3, align 8, !tbaa !26
  ret void
}

; Function Attrs: mustprogress uwtable
define hidden void @_ZN2cv11bioinspired10RetinaImplC2ENS_5Size_IiEE(ptr noundef nonnull align 8 dereferenceable(112) %0, i64 %1) unnamed_addr #4 align 2 personality ptr @__gxx_personality_v0 {
  %3 = alloca %"class.cv::Size_", align 4
  %4 = alloca ptr, align 8
  %5 = alloca ptr, align 8
  %6 = alloca i32, align 4
  %7 = alloca %"class.cv::Size_", align 4
  store i64 %1, ptr %3, align 4
  store ptr %0, ptr %4, align 8, !tbaa !24
  %8 = load ptr, ptr %4, align 8
  call void @_ZN2cv11bioinspired6RetinaC2Ev(ptr noundef nonnull align 8 dereferenceable(8) %8)
  store ptr getelementptr inbounds inrange(-16, 240) ({ [32 x ptr] }, ptr @_ZTVN2cv11bioinspired10RetinaImplE, i32 0, i32 0, i32 2), ptr %8, align 8, !tbaa !26
  %9 = getelementptr inbounds nuw %"class.cv::bioinspired::RetinaImpl", ptr %8, i32 0, i32 1
  invoke void @_ZN2cv11bioinspired16RetinaParametersC2Ev(ptr noundef nonnull align 4 dereferenceable(64) %9)
          to label %10 unwind label %15

10:                                               ; preds = %2
  %11 = getelementptr inbounds nuw %"class.cv::bioinspired::RetinaImpl", ptr %8, i32 0, i32 2
  call void @_ZNSt8valarrayIfEC2Ev(ptr noundef nonnull align 8 dereferenceable(16) %11) #3
  %12 = getelementptr inbounds nuw %"class.cv::bioinspired::RetinaImpl", ptr %8, i32 0, i32 3
  call void @_ZN2cv3PtrINS_11bioinspired12RetinaFilterEEC2Ev(ptr noundef nonnull align 8 dereferenceable(16) %12) #3
  call void @llvm.memcpy.p0.p0.i64(ptr align 4 %7, ptr align 4 %3, i64 8, i1 false), !tbaa.struct !28
  %13 = load i64, ptr %7, align 4
  invoke void @_ZN2cv11bioinspired10RetinaImpl5_initENS_5Size_IiEEbibff(ptr noundef nonnull align 8 dereferenceable(112) %8, i64 %13, i1 noundef zeroext true, i32 noundef 2, i1 noundef zeroext false, float noundef 1.000000e+00, float noundef 1.000000e+01)
          to label %14 unwind label %19

14:                                               ; preds = %10
  ret void

15:                                               ; preds = %2
  %16 = landingpad { ptr, i32 }
          cleanup
  %17 = extractvalue { ptr, i32 } %16, 0
  store ptr %17, ptr %5, align 8
  %18 = extractvalue { ptr, i32 } %16, 1
  store i32 %18, ptr %6, align 4
  br label %23

19:                                               ; preds = %10
  %20 = landingpad { ptr, i32 }
          cleanup
  %21 = extractvalue { ptr, i32 } %20, 0
  store ptr %21, ptr %5, align 8
  %22 = extractvalue { ptr, i32 } %20, 1
  store i32 %22, ptr %6, align 4
  call void @_ZNSt12__shared_ptrIN2cv11bioinspired12RetinaFilterELN9__gnu_cxx12_Lock_policyE2EED2Ev(ptr noundef nonnull align 8 dereferenceable(16) %12) #3
  call void @_ZNSt8valarrayIfED2Ev(ptr noundef nonnull align 8 dereferenceable(16) %11) #3
  br label %23

23:                                               ; preds = %19, %15
  call void @_ZN2cv9AlgorithmD2Ev(ptr noundef nonnull align 8 dereferenceable(8) %8) #3
  br label %24

24:                                               ; preds = %23
  %25 = load ptr, ptr %5, align 8
  %26 = load i32, ptr %6, align 4
  %27 = insertvalue { ptr, i32 } poison, ptr %25, 0
  %28 = insertvalue { ptr, i32 } %27, i32 %26, 1
  resume { ptr, i32 } %28
}