; Function Attrs: mustprogress uwtable
define hidden void @_ZN2cv11bioinspired10RetinaImplC2ENS_5Size_IiEE(ptr noundef nonnull align 8 dereferenceable(112) %0, i64 %1) unnamed_addr #3 align 2 personality ptr @__gxx_personality_v0 {
  tail call void @_ZN2cv9AlgorithmC2Ev(ptr noundef nonnull align 8 dereferenceable(8) %0)
  store ptr getelementptr inbounds nuw inrange(-16, 240) (i8, ptr @_ZTVN2cv11bioinspired10RetinaImplE, i64 16), ptr %0, align 8, !tbaa !14
  %3 = getelementptr inbounds nuw i8, ptr %0, i64 8
  store i8 1, ptr %3, align 8, !tbaa !28
  %4 = getelementptr inbounds nuw i8, ptr %0, i64 9
  store i8 1, ptr %4, align 1, !tbaa !32
  %5 = getelementptr inbounds nuw i8, ptr %0, i64 12
  store float 7.500000e-01, ptr %5, align 4, !tbaa !33
  %6 = getelementptr inbounds nuw i8, ptr %0, i64 16
  store float 0x3FECCCCCC0000000, ptr %6, align 8, !tbaa !34
  %7 = getelementptr inbounds nuw i8, ptr %0, i64 20
  store float 0x3FE0F5C280000000, ptr %7, align 4, !tbaa !35
  %8 = getelementptr inbounds nuw i8, ptr %0, i64 24
  store float 0x3F847AE140000000, ptr %8, align 8, !tbaa !36
  %9 = getelementptr inbounds nuw i8, ptr %0, i64 28
  store float 5.000000e-01, ptr %9, align 4, !tbaa !37
  %10 = getelementptr inbounds nuw i8, ptr %0, i64 32
  store float 7.000000e+00, ptr %10, align 8, !tbaa !38
  %11 = getelementptr inbounds nuw i8, ptr %0, i64 36
  store float 7.500000e-01, ptr %11, align 4, !tbaa !39
  %12 = getelementptr inbounds nuw i8, ptr %0, i64 40
  store i8 1, ptr %12, align 8, !tbaa !40
  %13 = getelementptr inbounds nuw i8, ptr %0, i64 44
  store float 0.000000e+00, ptr %13, align 4, !tbaa !42
  %14 = getelementptr inbounds nuw i8, ptr %0, i64 48
  store float 0.000000e+00, ptr %14, align 8, !tbaa !43
  %15 = getelementptr inbounds nuw i8, ptr %0, i64 52
  store float 7.000000e+00, ptr %15, align 4, !tbaa !44
  %16 = getelementptr inbounds nuw i8, ptr %0, i64 56
  store float 2.000000e+00, ptr %16, align 8, !tbaa !45
  %17 = getelementptr inbounds nuw i8, ptr %0, i64 60
  store float 0x3FEE666660000000, ptr %17, align 4, !tbaa !46
  %18 = getelementptr inbounds nuw i8, ptr %0, i64 64
  store float 0.000000e+00, ptr %18, align 8, !tbaa !47
  %19 = getelementptr inbounds nuw i8, ptr %0, i64 68
  store float 7.000000e+00, ptr %19, align 4, !tbaa !48
  %20 = getelementptr inbounds nuw i8, ptr %0, i64 72
  tail call void @llvm.memset.p0.i64(ptr noundef nonnull align 8 dereferenceable(32) %20, i8 0, i64 32, i1 false)
  invoke void @_ZN2cv11bioinspired10RetinaImpl5_initENS_5Size_IiEEbibff(ptr noundef nonnull align 8 dereferenceable(112) %0, i64 %1, i1 noundef zeroext true, i32 noundef 2, i1 noundef zeroext false, float noundef 1.000000e+00, float noundef 1.000000e+01)
          to label %21 unwind label %22

21:                                               ; preds = %2
  ret void

22:                                               ; preds = %2
  %23 = landingpad { ptr, i32 }
          cleanup
  %24 = getelementptr inbounds nuw i8, ptr %0, i64 88
  tail call void @_ZNSt12__shared_ptrIN2cv11bioinspired12RetinaFilterELN9__gnu_cxx12_Lock_policyE2EED2Ev(ptr noundef nonnull align 8 dereferenceable(16) %24) #29
  %25 = getelementptr inbounds nuw i8, ptr %0, i64 80
  %26 = load ptr, ptr %25, align 8, !tbaa !49
  tail call void @_ZdlPv(ptr noundef %26) #29
  tail call void @_ZN2cv9AlgorithmD2Ev(ptr noundef nonnull align 8 dereferenceable(8) %0) #29
  resume { ptr, i32 } %23
}